ccopy_reg
_reconstructor
p0
(csklearn.linear_model.base
LinearRegression
p1
c__builtin__
object
p2
Ntp3
Rp4
(dp5
p6
I00
sS'n_jobs'
p7
I10
sS'rank_'
p8
I4
sS'fit_intercept'
p9
I01
sS'_residues'
p10
cnumpy.core.multiarray
scalar
p11
(cnumpy
dtype
p12
(S'f8'
p13
I0
I1
tp14
Rp15
(I3
S'<'
p16
NNNI-1
I-1
I0
tp17
bS'\x9eC&:\xa5\xb1HA'
p18
tp19
Rp20
sS'coef_'
p21
cnumpy.core.multiarray
_reconstruct
p22
(cnumpy
ndarray
p23
(I0
tp24
S'b'
p25
tp26
Rp27
(I1
(I4
tp28
g15
I00
S'\x86\xf1\xfa]\xe0)l@\xe06\xc5\xe4p\xfe\xfa\xbf\x00\xcb\xa9\xc2\xc3\x81\xe6\xbf\xf0\x1b\xfc\x94\x9a}\x0b\xc0'
p29
tp30
bsS'_sklearn_version'
p31
S'0.19.0'
p32
sS'copy_X'
p33
I01
sS'intercept_'
p34
g11
(g15
S'\xe9P\xd2H\xc5qx@'
p35
tp36
Rp37
sS'singular_'
p38
g22
(g23
(I0
tp39
g25
tp40
Rp41
(I1
(I4
tp42
g15
I00
S'\xbc\x06\xa9Oz&Q@\x82x\xb0tsEM@\xa0)\xd9\xbf\xd11@@$\xffn\xf3x`7@'
p43
tp44
bsb.